---
triple:          'arm64-apple-darwin'
binary-path:     '/Users/useradmin/GH/TavernSim/main'
relocations:
  - { offsetInCU: 0x47FF, offset: 0x47FF, size: 0x8, addend: 0x0, symName: __ZNSt3__124__put_character_sequenceB7v160006IcNS_11char_traitsIcEEEERNS_13basic_ostreamIT_T0_EES7_PKS4_m, symObjAddr: 0x7B8, symBinAddr: 0x100001C9C, symSize: 0x1EC }
  - { offsetInCU: 0x664E, offset: 0x664E, size: 0x8, addend: 0x0, symName: __ZNSt3__1lsB7v160006INS_11char_traitsIcEEEERNS_13basic_ostreamIcT_EES6_PKc, symObjAddr: 0x220, symBinAddr: 0x100001704, symSize: 0x48 }
  - { offsetInCU: 0x6694, offset: 0x6694, size: 0x8, addend: 0x0, symName: __ZNSt3__14endlB7v160006IcNS_11char_traitsIcEEEERNS_13basic_ostreamIT_T0_EES7_, symObjAddr: 0x294, symBinAddr: 0x100001778, symSize: 0x58 }
  - { offsetInCU: 0x66D4, offset: 0x66D4, size: 0x8, addend: 0x0, symName: __ZNSt3__111make_uniqueB7v160006I16ConsoleUiManagerJEEENS_11__unique_ifIT_E15__unique_singleEDpOT0_, symObjAddr: 0x38C, symBinAddr: 0x100001870, symSize: 0x64 }
  - { offsetInCU: 0x6701, offset: 0x6701, size: 0x8, addend: 0x0, symName: __ZNSt3__1lsB7v160006IcNS_11char_traitsIcEENS_9allocatorIcEEEERNS_13basic_ostreamIT_T0_EES9_RKNS_12basic_stringIS6_S7_T1_EE, symObjAddr: 0x76C, symBinAddr: 0x100001C50, symSize: 0x4C }
  - { offsetInCU: 0x6759, offset: 0x6759, size: 0x8, addend: 0x0, symName: __ZNSt3__116__pad_and_outputB7v160006IcNS_11char_traitsIcEEEENS_19ostreambuf_iteratorIT_T0_EES6_PKS4_S8_S8_RNS_8ios_baseES4_, symObjAddr: 0xA3C, symBinAddr: 0x100001F20, symSize: 0x240 }
  - { offsetInCU: 0x6828, offset: 0x6828, size: 0x8, addend: 0x0, symName: __ZNSt3__119__debug_db_insert_cB7v160006INS_12basic_stringIcNS_11char_traitsIcEENS_9allocatorIcEEEEEEvPT_, symObjAddr: 0xED4, symBinAddr: 0x1000023B8, symSize: 0x10 }
  - { offsetInCU: 0x6859, offset: 0x6859, size: 0x8, addend: 0x0, symName: __ZNSt3__19use_facetB7v160006INS_5ctypeIcEEEERKT_RKNS_6localeE, symObjAddr: 0x10E4, symBinAddr: 0x1000025C8, symSize: 0x2C }
  - { offsetInCU: 0x6C39, offset: 0x6C39, size: 0x8, addend: 0x0, symName: __ZNSt3__112__to_addressB7v160006IKcEEPT_S3_, symObjAddr: 0x117C, symBinAddr: 0x100002660, symSize: 0x14 }
  - { offsetInCU: 0x6CA1, offset: 0x6CA1, size: 0x8, addend: 0x0, symName: __ZNSt3__1neB7v160006IPNS_12basic_stringIcNS_11char_traitsIcEENS_9allocatorIcEEEEEEbRKNS_11__wrap_iterIT_EESC_, symObjAddr: 0x1374, symBinAddr: 0x100002858, symSize: 0x34 }
  - { offsetInCU: 0x6CE4, offset: 0x6CE4, size: 0x8, addend: 0x0, symName: __ZNSt3__1eqB7v160006IPNS_12basic_stringIcNS_11char_traitsIcEENS_9allocatorIcEEEEEEbRKNS_11__wrap_iterIT_EESC_, symObjAddr: 0x1474, symBinAddr: 0x100002958, symSize: 0x48 }
  - { offsetInCU: 0x6D27, offset: 0x6D27, size: 0x8, addend: 0x0, symName: __ZNSt3__1rsB7v160006IcNS_11char_traitsIcEENS_9allocatorIcEEEERNS_13basic_istreamIT_T0_EES9_RNS_12basic_stringIS6_S7_T1_EE, symObjAddr: 0x1500, symBinAddr: 0x1000029E4, symSize: 0x30C }
  - { offsetInCU: 0x757F, offset: 0x757F, size: 0x8, addend: 0x0, symName: __ZNSt3__125__debug_db_invalidate_allB7v160006INS_12basic_stringIcNS_11char_traitsIcEENS_9allocatorIcEEEEEEvPT_, symObjAddr: 0x1C3C, symBinAddr: 0x100003120, symSize: 0x10 }
  - { offsetInCU: 0x7801, offset: 0x7801, size: 0x8, addend: 0x0, symName: __ZNSt3__118__constexpr_strlenB7v160006EPKc, symObjAddr: 0x2510, symBinAddr: 0x1000039F4, symSize: 0x24 }
  - { offsetInCU: 0x7D36, offset: 0x7D36, size: 0x8, addend: 0x0, symName: __ZN9GameState8InstanceEv, symObjAddr: 0x140, symBinAddr: 0x100001624, symSize: 0xB8 }
  - { offsetInCU: 0x7D55, offset: 0x7D55, size: 0x8, addend: 0x0, symName: __ZZN9GameState8InstanceEvE8INSTANCE, symObjAddr: 0x26E8, symBinAddr: 0x100008000, symSize: 0x0 }
  - { offsetInCU: 0xA172, offset: 0xA172, size: 0x8, addend: 0x0, symName: _main, symObjAddr: 0x0, symBinAddr: 0x1000014E4, symSize: 0x140 }
  - { offsetInCU: 0xA1AB, offset: 0xA1AB, size: 0x8, addend: 0x0, symName: __ZNKSt3__110unique_ptrI9UiManagerNS_14default_deleteIS1_EEEptB7v160006Ev, symObjAddr: 0x1F8, symBinAddr: 0x1000016DC, symSize: 0x28 }
  - { offsetInCU: 0xA1D1, offset: 0xA1D1, size: 0x8, addend: 0x0, symName: __ZNSt3__113basic_ostreamIcNS_11char_traitsIcEEElsB7v160006EPFRS3_S4_E, symObjAddr: 0x268, symBinAddr: 0x10000174C, symSize: 0x2C }
  - { offsetInCU: 0xA205, offset: 0xA205, size: 0x8, addend: 0x0, symName: __ZN9GameStateC1Ev, symObjAddr: 0x2EC, symBinAddr: 0x1000017D0, symSize: 0x2C }
  - { offsetInCU: 0xA22F, offset: 0xA22F, size: 0x8, addend: 0x0, symName: __ZN9GameStateD1Ev, symObjAddr: 0x318, symBinAddr: 0x1000017FC, symSize: 0x2C }
  - { offsetInCU: 0xA25B, offset: 0xA25B, size: 0x8, addend: 0x0, symName: __ZN9GameStateC2Ev, symObjAddr: 0x344, symBinAddr: 0x100001828, symSize: 0x48 }
  - { offsetInCU: 0xA285, offset: 0xA285, size: 0x8, addend: 0x0, symName: __ZNSt3__110unique_ptrI9UiManagerNS_14default_deleteIS1_EEEC1B7v160006I16ConsoleUiManagerNS2_IS6_EEvvEEONS0_IT_T0_EE, symObjAddr: 0x3F0, symBinAddr: 0x1000018D4, symSize: 0x34 }
  - { offsetInCU: 0xA2D1, offset: 0xA2D1, size: 0x8, addend: 0x0, symName: __ZNSt3__110unique_ptrI16ConsoleUiManagerNS_14default_deleteIS1_EEED1B7v160006Ev, symObjAddr: 0x424, symBinAddr: 0x100001908, symSize: 0x2C }
  - { offsetInCU: 0xA2FB, offset: 0xA2FB, size: 0x8, addend: 0x0, symName: __ZN16ConsoleUiManagerC1Ev, symObjAddr: 0x450, symBinAddr: 0x100001934, symSize: 0x2C }
  - { offsetInCU: 0xA325, offset: 0xA325, size: 0x8, addend: 0x0, symName: __ZNSt3__110unique_ptrI16ConsoleUiManagerNS_14default_deleteIS1_EEEC1B7v160006ILb1EvEEPS1_, symObjAddr: 0x47C, symBinAddr: 0x100001960, symSize: 0x34 }
  - { offsetInCU: 0xA368, offset: 0xA368, size: 0x8, addend: 0x0, symName: __ZN16ConsoleUiManagerC2Ev, symObjAddr: 0x4B0, symBinAddr: 0x100001994, symSize: 0x44 }
  - { offsetInCU: 0xA392, offset: 0xA392, size: 0x8, addend: 0x0, symName: __ZN9UiManagerC2Ev, symObjAddr: 0x4F4, symBinAddr: 0x1000019D8, symSize: 0x24 }
  - { offsetInCU: 0xA3BE, offset: 0xA3BE, size: 0x8, addend: 0x0, symName: __ZNK16ConsoleUiManager14DisplayMessageENSt3__112basic_stringIcNS0_11char_traitsIcEENS0_9allocatorIcEEEE, symObjAddr: 0x518, symBinAddr: 0x1000019FC, symSize: 0x30 }
  - { offsetInCU: 0xA3F3, offset: 0xA3F3, size: 0x8, addend: 0x0, symName: __ZNK16ConsoleUiManager14DisplayMessageERNSt3__16vectorINS0_12basic_stringIcNS0_11char_traitsIcEENS0_9allocatorIcEEEENS5_IS7_EEEE, symObjAddr: 0x548, symBinAddr: 0x100001A2C, symSize: 0xD4 }
  - { offsetInCU: 0xA469, offset: 0xA469, size: 0x8, addend: 0x0, symName: __ZNK16ConsoleUiManager11GetRawInputEv, symObjAddr: 0x61C, symBinAddr: 0x100001B00, symSize: 0xA4 }
  - { offsetInCU: 0xA49F, offset: 0xA49F, size: 0x8, addend: 0x0, symName: __ZNK16ConsoleUiManager11GetIntInputEv, symObjAddr: 0x6C0, symBinAddr: 0x100001BA4, symSize: 0x30 }
  - { offsetInCU: 0xA4D4, offset: 0xA4D4, size: 0x8, addend: 0x0, symName: __ZN16ConsoleUiManagerD1Ev, symObjAddr: 0x6F0, symBinAddr: 0x100001BD4, symSize: 0x2C }
  - { offsetInCU: 0xA500, offset: 0xA500, size: 0x8, addend: 0x0, symName: __ZN16ConsoleUiManagerD0Ev, symObjAddr: 0x71C, symBinAddr: 0x100001C00, symSize: 0x30 }
  - { offsetInCU: 0xA52C, offset: 0xA52C, size: 0x8, addend: 0x0, symName: __ZN9UiManagerD1Ev, symObjAddr: 0x74C, symBinAddr: 0x100001C30, symSize: 0x14 }
  - { offsetInCU: 0xA556, offset: 0xA556, size: 0x8, addend: 0x0, symName: __ZN9UiManagerD0Ev, symObjAddr: 0x760, symBinAddr: 0x100001C44, symSize: 0xC }
  - { offsetInCU: 0xA580, offset: 0xA580, size: 0x8, addend: 0x0, symName: __ZNKSt3__112basic_stringIcNS_11char_traitsIcEENS_9allocatorIcEEE4dataB7v160006Ev, symObjAddr: 0x9A4, symBinAddr: 0x100001E88, symSize: 0x28 }
  - { offsetInCU: 0xA5A6, offset: 0xA5A6, size: 0x8, addend: 0x0, symName: __ZNKSt3__112basic_stringIcNS_11char_traitsIcEENS_9allocatorIcEEE4sizeB7v160006Ev, symObjAddr: 0x9CC, symBinAddr: 0x100001EB0, symSize: 0x54 }
  - { offsetInCU: 0xA5EA, offset: 0xA5EA, size: 0x8, addend: 0x0, symName: __ZNKSt3__113basic_ostreamIcNS_11char_traitsIcEEE6sentrycvbB7v160006Ev, symObjAddr: 0xA20, symBinAddr: 0x100001F04, symSize: 0x1C }
  - { offsetInCU: 0xA610, offset: 0xA610, size: 0x8, addend: 0x0, symName: __ZNSt3__119ostreambuf_iteratorIcNS_11char_traitsIcEEEC1B7v160006ERNS_13basic_ostreamIcS2_EE, symObjAddr: 0xC7C, symBinAddr: 0x100002160, symSize: 0x34 }
  - { offsetInCU: 0xA648, offset: 0xA648, size: 0x8, addend: 0x0, symName: __ZNKSt3__18ios_base5flagsB7v160006Ev, symObjAddr: 0xCB0, symBinAddr: 0x100002194, symSize: 0x18 }
  - { offsetInCU: 0xA670, offset: 0xA670, size: 0x8, addend: 0x0, symName: __ZNKSt3__19basic_iosIcNS_11char_traitsIcEEE4fillB7v160006Ev, symObjAddr: 0xCC8, symBinAddr: 0x1000021AC, symSize: 0x64 }
  - { offsetInCU: 0xA698, offset: 0xA698, size: 0x8, addend: 0x0, symName: __ZNKSt3__119ostreambuf_iteratorIcNS_11char_traitsIcEEE6failedB7v160006Ev, symObjAddr: 0xD2C, symBinAddr: 0x100002210, symSize: 0x24 }
  - { offsetInCU: 0xA6BE, offset: 0xA6BE, size: 0x8, addend: 0x0, symName: __ZNSt3__19basic_iosIcNS_11char_traitsIcEEE8setstateB7v160006Ej, symObjAddr: 0xD50, symBinAddr: 0x100002234, symSize: 0x2C }
  - { offsetInCU: 0xA6F3, offset: 0xA6F3, size: 0x8, addend: 0x0, symName: __ZNKSt3__18ios_base5widthB7v160006Ev, symObjAddr: 0xD88, symBinAddr: 0x10000226C, symSize: 0x18 }
  - { offsetInCU: 0xA71B, offset: 0xA71B, size: 0x8, addend: 0x0, symName: __ZNSt3__115basic_streambufIcNS_11char_traitsIcEEE5sputnB7v160006EPKcl, symObjAddr: 0xDA0, symBinAddr: 0x100002284, symSize: 0x3C }
  - { offsetInCU: 0xA75D, offset: 0xA75D, size: 0x8, addend: 0x0, symName: __ZNSt3__112basic_stringIcNS_11char_traitsIcEENS_9allocatorIcEEEC1B7v160006Emc, symObjAddr: 0xDDC, symBinAddr: 0x1000022C0, symSize: 0x3C }
  - { offsetInCU: 0xA7A5, offset: 0xA7A5, size: 0x8, addend: 0x0, symName: __ZNSt3__18ios_base5widthB7v160006El, symObjAddr: 0xE18, symBinAddr: 0x1000022FC, symSize: 0x2C }
  - { offsetInCU: 0xA7EB, offset: 0xA7EB, size: 0x8, addend: 0x0, symName: __ZNSt3__112basic_stringIcNS_11char_traitsIcEENS_9allocatorIcEEEC2B7v160006Emc, symObjAddr: 0xE44, symBinAddr: 0x100002328, symSize: 0x54 }
  - { offsetInCU: 0xA838, offset: 0xA838, size: 0x8, addend: 0x0, symName: __ZNSt3__117__compressed_pairINS_12basic_stringIcNS_11char_traitsIcEENS_9allocatorIcEEE5__repES5_EC1B7v160006INS_18__default_init_tagESA_EEOT_OT0_, symObjAddr: 0xE98, symBinAddr: 0x10000237C, symSize: 0x3C }
  - { offsetInCU: 0xA890, offset: 0xA890, size: 0x8, addend: 0x0, symName: __ZNSt3__117__compressed_pairINS_12basic_stringIcNS_11char_traitsIcEENS_9allocatorIcEEE5__repES5_EC2B7v160006INS_18__default_init_tagESA_EEOT_OT0_, symObjAddr: 0xEE4, symBinAddr: 0x1000023C8, symSize: 0x3C }
  - { offsetInCU: 0xA8E8, offset: 0xA8E8, size: 0x8, addend: 0x0, symName: __ZNSt3__122__compressed_pair_elemINS_12basic_stringIcNS_11char_traitsIcEENS_9allocatorIcEEE5__repELi0ELb0EEC2B7v160006ENS_18__default_init_tagE, symObjAddr: 0xF20, symBinAddr: 0x100002404, symSize: 0x14 }
  - { offsetInCU: 0xA91D, offset: 0xA91D, size: 0x8, addend: 0x0, symName: __ZNSt3__122__compressed_pair_elemINS_9allocatorIcEELi1ELb1EEC2B7v160006ENS_18__default_init_tagE, symObjAddr: 0xF34, symBinAddr: 0x100002418, symSize: 0x2C }
  - { offsetInCU: 0xA952, offset: 0xA952, size: 0x8, addend: 0x0, symName: __ZNSt3__19allocatorIcEC2B7v160006Ev, symObjAddr: 0xF60, symBinAddr: 0x100002444, symSize: 0x2C }
  - { offsetInCU: 0xA97C, offset: 0xA97C, size: 0x8, addend: 0x0, symName: __ZNSt3__116__non_trivial_ifILb1ENS_9allocatorIcEEEC2B7v160006Ev, symObjAddr: 0xF8C, symBinAddr: 0x100002470, symSize: 0x14 }
  - { offsetInCU: 0xA9A6, offset: 0xA9A6, size: 0x8, addend: 0x0, symName: __ZNSt3__119ostreambuf_iteratorIcNS_11char_traitsIcEEEC2B7v160006ERNS_13basic_ostreamIcS2_EE, symObjAddr: 0xFA0, symBinAddr: 0x100002484, symSize: 0x54 }
  - { offsetInCU: 0xA9DE, offset: 0xA9DE, size: 0x8, addend: 0x0, symName: __ZNKSt3__19basic_iosIcNS_11char_traitsIcEEE5rdbufB7v160006Ev, symObjAddr: 0xFF4, symBinAddr: 0x1000024D8, symSize: 0x24 }
  - { offsetInCU: 0xAA06, offset: 0xAA06, size: 0x8, addend: 0x0, symName: __ZNKSt3__18ios_base5rdbufB7v160006Ev, symObjAddr: 0x1018, symBinAddr: 0x1000024FC, symSize: 0x18 }
  - { offsetInCU: 0xAA2C, offset: 0xAA2C, size: 0x8, addend: 0x0, symName: __ZNSt3__111char_traitsIcE11eq_int_typeEii, symObjAddr: 0x1030, symBinAddr: 0x100002514, symSize: 0x28 }
  - { offsetInCU: 0xAA5D, offset: 0xAA5D, size: 0x8, addend: 0x0, symName: __ZNSt3__111char_traitsIcE3eofEv, symObjAddr: 0x1058, symBinAddr: 0x10000253C, symSize: 0x8 }
  - { offsetInCU: 0xAA71, offset: 0xAA71, size: 0x8, addend: 0x0, symName: __ZNKSt3__19basic_iosIcNS_11char_traitsIcEEE5widenB7v160006Ec, symObjAddr: 0x1060, symBinAddr: 0x100002544, symSize: 0x84 }
  - { offsetInCU: 0xAAD5, offset: 0xAAD5, size: 0x8, addend: 0x0, symName: __ZNKSt3__15ctypeIcE5widenB7v160006Ec, symObjAddr: 0x1110, symBinAddr: 0x1000025F4, symSize: 0x38 }
  - { offsetInCU: 0xAB0A, offset: 0xAB0A, size: 0x8, addend: 0x0, symName: __ZNSt3__18ios_base8setstateB7v160006Ej, symObjAddr: 0x1148, symBinAddr: 0x10000262C, symSize: 0x34 }
  - { offsetInCU: 0xAB41, offset: 0xAB41, size: 0x8, addend: 0x0, symName: __ZNKSt3__112basic_stringIcNS_11char_traitsIcEENS_9allocatorIcEEE13__get_pointerB7v160006Ev, symObjAddr: 0x1190, symBinAddr: 0x100002674, symSize: 0x54 }
  - { offsetInCU: 0xAB67, offset: 0xAB67, size: 0x8, addend: 0x0, symName: __ZNKSt3__112basic_stringIcNS_11char_traitsIcEENS_9allocatorIcEEE9__is_longB7v160006Ev, symObjAddr: 0x11E4, symBinAddr: 0x1000026C8, symSize: 0x38 }
  - { offsetInCU: 0xAB8D, offset: 0xAB8D, size: 0x8, addend: 0x0, symName: __ZNKSt3__112basic_stringIcNS_11char_traitsIcEENS_9allocatorIcEEE18__get_long_pointerB7v160006Ev, symObjAddr: 0x121C, symBinAddr: 0x100002700, symSize: 0x28 }
  - { offsetInCU: 0xABB3, offset: 0xABB3, size: 0x8, addend: 0x0, symName: __ZNKSt3__112basic_stringIcNS_11char_traitsIcEENS_9allocatorIcEEE19__get_short_pointerB7v160006Ev, symObjAddr: 0x1244, symBinAddr: 0x100002728, symSize: 0x28 }
  - { offsetInCU: 0xABD9, offset: 0xABD9, size: 0x8, addend: 0x0, symName: __ZNKSt3__117__compressed_pairINS_12basic_stringIcNS_11char_traitsIcEENS_9allocatorIcEEE5__repES5_E5firstB7v160006Ev, symObjAddr: 0x126C, symBinAddr: 0x100002750, symSize: 0x24 }
  - { offsetInCU: 0xABFF, offset: 0xABFF, size: 0x8, addend: 0x0, symName: __ZNKSt3__122__compressed_pair_elemINS_12basic_stringIcNS_11char_traitsIcEENS_9allocatorIcEEE5__repELi0ELb0EE5__getB7v160006Ev, symObjAddr: 0x1290, symBinAddr: 0x100002774, symSize: 0x14 }
  - { offsetInCU: 0xAC25, offset: 0xAC25, size: 0x8, addend: 0x0, symName: __ZNSt3__114pointer_traitsIPKcE10pointer_toB7v160006ERS1_, symObjAddr: 0x12A4, symBinAddr: 0x100002788, symSize: 0x14 }
  - { offsetInCU: 0xAC48, offset: 0xAC48, size: 0x8, addend: 0x0, symName: __ZNKSt3__112basic_stringIcNS_11char_traitsIcEENS_9allocatorIcEEE15__get_long_sizeB7v160006Ev, symObjAddr: 0x12B8, symBinAddr: 0x10000279C, symSize: 0x28 }
  - { offsetInCU: 0xAC6E, offset: 0xAC6E, size: 0x8, addend: 0x0, symName: __ZNKSt3__112basic_stringIcNS_11char_traitsIcEENS_9allocatorIcEEE16__get_short_sizeB7v160006Ev, symObjAddr: 0x12E0, symBinAddr: 0x1000027C4, symSize: 0x34 }
  - { offsetInCU: 0xAC94, offset: 0xAC94, size: 0x8, addend: 0x0, symName: __ZNSt3__16vectorINS_12basic_stringIcNS_11char_traitsIcEENS_9allocatorIcEEEENS4_IS6_EEE5beginB7v160006Ev, symObjAddr: 0x1314, symBinAddr: 0x1000027F8, symSize: 0x30 }
  - { offsetInCU: 0xACBC, offset: 0xACBC, size: 0x8, addend: 0x0, symName: __ZNSt3__16vectorINS_12basic_stringIcNS_11char_traitsIcEENS_9allocatorIcEEEENS4_IS6_EEE3endB7v160006Ev, symObjAddr: 0x1344, symBinAddr: 0x100002828, symSize: 0x30 }
  - { offsetInCU: 0xACE4, offset: 0xACE4, size: 0x8, addend: 0x0, symName: __ZNKSt3__111__wrap_iterIPNS_12basic_stringIcNS_11char_traitsIcEENS_9allocatorIcEEEEEdeB7v160006Ev, symObjAddr: 0x13A8, symBinAddr: 0x10000288C, symSize: 0x18 }
  - { offsetInCU: 0xAD0A, offset: 0xAD0A, size: 0x8, addend: 0x0, symName: __ZNSt3__111__wrap_iterIPNS_12basic_stringIcNS_11char_traitsIcEENS_9allocatorIcEEEEEppB7v160006Ev, symObjAddr: 0x13C0, symBinAddr: 0x1000028A4, symSize: 0x20 }
  - { offsetInCU: 0xAD30, offset: 0xAD30, size: 0x8, addend: 0x0, symName: __ZNSt3__16vectorINS_12basic_stringIcNS_11char_traitsIcEENS_9allocatorIcEEEENS4_IS6_EEE11__make_iterB7v160006EPS6_, symObjAddr: 0x13E0, symBinAddr: 0x1000028C4, symSize: 0x34 }
  - { offsetInCU: 0xAD65, offset: 0xAD65, size: 0x8, addend: 0x0, symName: __ZNSt3__111__wrap_iterIPNS_12basic_stringIcNS_11char_traitsIcEENS_9allocatorIcEEEEEC1B7v160006EPKvS7_, symObjAddr: 0x1414, symBinAddr: 0x1000028F8, symSize: 0x3C }
  - { offsetInCU: 0xADAB, offset: 0xADAB, size: 0x8, addend: 0x0, symName: __ZNSt3__111__wrap_iterIPNS_12basic_stringIcNS_11char_traitsIcEENS_9allocatorIcEEEEEC2B7v160006EPKvS7_, symObjAddr: 0x1450, symBinAddr: 0x100002934, symSize: 0x24 }
  - { offsetInCU: 0xADF1, offset: 0xADF1, size: 0x8, addend: 0x0, symName: __ZNKSt3__111__wrap_iterIPNS_12basic_stringIcNS_11char_traitsIcEENS_9allocatorIcEEEEE4baseB7v160006Ev, symObjAddr: 0x14BC, symBinAddr: 0x1000029A0, symSize: 0x18 }
  - { offsetInCU: 0xAE17, offset: 0xAE17, size: 0x8, addend: 0x0, symName: __ZNSt3__112basic_stringIcNS_11char_traitsIcEENS_9allocatorIcEEEC1B7v160006Ev, symObjAddr: 0x14D4, symBinAddr: 0x1000029B8, symSize: 0x2C }
  - { offsetInCU: 0xAE41, offset: 0xAE41, size: 0x8, addend: 0x0, symName: __ZNSt3__112basic_stringIcNS_11char_traitsIcEENS_9allocatorIcEEEC2B7v160006Ev, symObjAddr: 0x180C, symBinAddr: 0x100002CF0, symSize: 0x50 }
  - { offsetInCU: 0xAE6B, offset: 0xAE6B, size: 0x8, addend: 0x0, symName: __ZNSt3__112basic_stringIcNS_11char_traitsIcEENS_9allocatorIcEEE14__default_initB7v160006Ev, symObjAddr: 0x185C, symBinAddr: 0x100002D40, symSize: 0x40 }
  - { offsetInCU: 0xAE91, offset: 0xAE91, size: 0x8, addend: 0x0, symName: __ZNSt3__117__compressed_pairINS_12basic_stringIcNS_11char_traitsIcEENS_9allocatorIcEEE5__repES5_E5firstB7v160006Ev, symObjAddr: 0x189C, symBinAddr: 0x100002D80, symSize: 0x24 }
  - { offsetInCU: 0xAEB7, offset: 0xAEB7, size: 0x8, addend: 0x0, symName: __ZNSt3__122__compressed_pair_elemINS_12basic_stringIcNS_11char_traitsIcEENS_9allocatorIcEEE5__repELi0ELb0EE5__getB7v160006Ev, symObjAddr: 0x18C0, symBinAddr: 0x100002DA4, symSize: 0x14 }
  - { offsetInCU: 0xAF6F, offset: 0xAF6F, size: 0x8, addend: 0x0, symName: __ZNKSt3__113basic_istreamIcNS_11char_traitsIcEEE6sentrycvbB7v160006Ev, symObjAddr: 0x18D4, symBinAddr: 0x100002DB8, symSize: 0x1C }
  - { offsetInCU: 0xAF95, offset: 0xAF95, size: 0x8, addend: 0x0, symName: __ZNSt3__112basic_stringIcNS_11char_traitsIcEENS_9allocatorIcEEE5clearB7v160006Ev, symObjAddr: 0x18F0, symBinAddr: 0x100002DD4, symSize: 0x88 }
  - { offsetInCU: 0xAFBD, offset: 0xAFBD, size: 0x8, addend: 0x0, symName: __ZNKSt3__112basic_stringIcNS_11char_traitsIcEENS_9allocatorIcEEE8max_sizeB7v160006Ev, symObjAddr: 0x1978, symBinAddr: 0x100002E5C, symSize: 0xAC }
  - { offsetInCU: 0xB010, offset: 0xB010, size: 0x8, addend: 0x0, symName: __ZNSt3__114numeric_limitsIlE3maxB7v160006Ev, symObjAddr: 0x1A24, symBinAddr: 0x100002F08, symSize: 0x14 }
  - { offsetInCU: 0xB024, offset: 0xB024, size: 0x8, addend: 0x0, symName: __ZNSt3__115basic_streambufIcNS_11char_traitsIcEEE5sgetcB7v160006Ev, symObjAddr: 0x1A38, symBinAddr: 0x100002F1C, symSize: 0x70 }
  - { offsetInCU: 0xB04A, offset: 0xB04A, size: 0x8, addend: 0x0, symName: __ZNSt3__111char_traitsIcE12to_char_typeEi, symObjAddr: 0x1AA8, symBinAddr: 0x100002F8C, symSize: 0x18 }
  - { offsetInCU: 0xB06D, offset: 0xB06D, size: 0x8, addend: 0x0, symName: __ZNKSt3__15ctypeIcE2isB7v160006Ejc, symObjAddr: 0x1AC0, symBinAddr: 0x100002FA4, symSize: 0x7C }
  - { offsetInCU: 0xB0B1, offset: 0xB0B1, size: 0x8, addend: 0x0, symName: __ZNSt3__115basic_streambufIcNS_11char_traitsIcEEE6sbumpcB7v160006Ev, symObjAddr: 0x1B3C, symBinAddr: 0x100003020, symSize: 0x78 }
  - { offsetInCU: 0xB0D7, offset: 0xB0D7, size: 0x8, addend: 0x0, symName: __ZNSt3__18ios_base18__setstate_nothrowB7v160006Ej, symObjAddr: 0x1BB4, symBinAddr: 0x100003098, symSize: 0x64 }
  - { offsetInCU: 0xB10C, offset: 0xB10C, size: 0x8, addend: 0x0, symName: __ZNKSt3__19basic_iosIcNS_11char_traitsIcEEE10exceptionsB7v160006Ev, symObjAddr: 0x1C18, symBinAddr: 0x1000030FC, symSize: 0x24 }
  - { offsetInCU: 0xB132, offset: 0xB132, size: 0x8, addend: 0x0, symName: __ZNSt3__111char_traitsIcE6assignERcRKc, symObjAddr: 0x1C4C, symBinAddr: 0x100003130, symSize: 0x24 }
  - { offsetInCU: 0xB163, offset: 0xB163, size: 0x8, addend: 0x0, symName: __ZNSt3__112basic_stringIcNS_11char_traitsIcEENS_9allocatorIcEEE18__get_long_pointerB7v160006Ev, symObjAddr: 0x1C70, symBinAddr: 0x100003154, symSize: 0x28 }
  - { offsetInCU: 0xB189, offset: 0xB189, size: 0x8, addend: 0x0, symName: __ZNSt3__112basic_stringIcNS_11char_traitsIcEENS_9allocatorIcEEE15__set_long_sizeB7v160006Em, symObjAddr: 0x1C98, symBinAddr: 0x10000317C, symSize: 0x38 }
  - { offsetInCU: 0xB1BE, offset: 0xB1BE, size: 0x8, addend: 0x0, symName: __ZNSt3__112basic_stringIcNS_11char_traitsIcEENS_9allocatorIcEEE19__get_short_pointerB7v160006Ev, symObjAddr: 0x1CD0, symBinAddr: 0x1000031B4, symSize: 0x28 }
  - { offsetInCU: 0xB1E4, offset: 0xB1E4, size: 0x8, addend: 0x0, symName: __ZNSt3__112basic_stringIcNS_11char_traitsIcEENS_9allocatorIcEEE16__set_short_sizeB7v160006Em, symObjAddr: 0x1CF8, symBinAddr: 0x1000031DC, symSize: 0x78 }
  - { offsetInCU: 0xB219, offset: 0xB219, size: 0x8, addend: 0x0, symName: __ZNSt3__114pointer_traitsIPcE10pointer_toB7v160006ERc, symObjAddr: 0x1D70, symBinAddr: 0x100003254, symSize: 0x14 }
  - { offsetInCU: 0xB245, offset: 0xB245, size: 0x8, addend: 0x0, symName: __ZNSt3__116allocator_traitsINS_9allocatorIcEEE8max_sizeB7v160006IS2_vEEmRKS2_, symObjAddr: 0x1D84, symBinAddr: 0x100003268, symSize: 0x24 }
  - { offsetInCU: 0xB273, offset: 0xB273, size: 0x8, addend: 0x0, symName: __ZNKSt3__112basic_stringIcNS_11char_traitsIcEENS_9allocatorIcEEE7__allocB7v160006Ev, symObjAddr: 0x1DA8, symBinAddr: 0x10000328C, symSize: 0x24 }
  - { offsetInCU: 0xB299, offset: 0xB299, size: 0x8, addend: 0x0, symName: __ZNSt3__114numeric_limitsImE3maxB7v160006Ev, symObjAddr: 0x1DCC, symBinAddr: 0x1000032B0, symSize: 0x14 }
  - { offsetInCU: 0xB2AD, offset: 0xB2AD, size: 0x8, addend: 0x0, symName: __ZNKSt3__19allocatorIcE8max_sizeB7v160006Ev, symObjAddr: 0x1DE0, symBinAddr: 0x1000032C4, symSize: 0x14 }
  - { offsetInCU: 0xB2D3, offset: 0xB2D3, size: 0x8, addend: 0x0, symName: __ZNKSt3__117__compressed_pairINS_12basic_stringIcNS_11char_traitsIcEENS_9allocatorIcEEE5__repES5_E6secondB7v160006Ev, symObjAddr: 0x1DF4, symBinAddr: 0x1000032D8, symSize: 0x24 }
  - { offsetInCU: 0xB2F9, offset: 0xB2F9, size: 0x8, addend: 0x0, symName: __ZNKSt3__122__compressed_pair_elemINS_9allocatorIcEELi1ELb1EE5__getB7v160006Ev, symObjAddr: 0x1E18, symBinAddr: 0x1000032FC, symSize: 0x14 }
  - { offsetInCU: 0xB31F, offset: 0xB31F, size: 0x8, addend: 0x0, symName: __ZNSt3__123__libcpp_numeric_limitsImLb1EE3maxB7v160006Ev, symObjAddr: 0x1E2C, symBinAddr: 0x100003310, symSize: 0x8 }
  - { offsetInCU: 0xB333, offset: 0xB333, size: 0x8, addend: 0x0, symName: __ZNSt3__123__libcpp_numeric_limitsIlLb1EE3maxB7v160006Ev, symObjAddr: 0x1E34, symBinAddr: 0x100003318, symSize: 0x8 }
  - { offsetInCU: 0xB347, offset: 0xB347, size: 0x8, addend: 0x0, symName: __ZNSt3__111char_traitsIcE11to_int_typeEc, symObjAddr: 0x1E3C, symBinAddr: 0x100003320, symSize: 0x14 }
  - { offsetInCU: 0xB369, offset: 0xB369, size: 0x8, addend: 0x0, symName: __Z7isasciii, symObjAddr: 0x1E50, symBinAddr: 0x100003334, symSize: 0x24 }
  - { offsetInCU: 0xB396, offset: 0xB396, size: 0x8, addend: 0x0, symName: __ZNKSt3__18ios_base10exceptionsB7v160006Ev, symObjAddr: 0x1E74, symBinAddr: 0x100003358, symSize: 0x18 }
  - { offsetInCU: 0xB3BE, offset: 0xB3BE, size: 0x8, addend: 0x0, symName: __ZN16ConsoleUiManagerD2Ev, symObjAddr: 0x1E8C, symBinAddr: 0x100003370, symSize: 0x2C }
  - { offsetInCU: 0xB3EA, offset: 0xB3EA, size: 0x8, addend: 0x0, symName: __ZN9UiManagerD2Ev, symObjAddr: 0x1EB8, symBinAddr: 0x10000339C, symSize: 0x14 }
  - { offsetInCU: 0xB414, offset: 0xB414, size: 0x8, addend: 0x0, symName: __ZNSt3__110unique_ptrI16ConsoleUiManagerNS_14default_deleteIS1_EEEC2B7v160006ILb1EvEEPS1_, symObjAddr: 0x1ECC, symBinAddr: 0x1000033B0, symSize: 0x44 }
  - { offsetInCU: 0xB45C, offset: 0xB45C, size: 0x8, addend: 0x0, symName: __ZNSt3__117__compressed_pairIP16ConsoleUiManagerNS_14default_deleteIS1_EEEC1B7v160006IRS2_NS_16__value_init_tagEEEOT_OT0_, symObjAddr: 0x1F10, symBinAddr: 0x1000033F4, symSize: 0x3C }
  - { offsetInCU: 0xB4B4, offset: 0xB4B4, size: 0x8, addend: 0x0, symName: __ZNSt3__117__compressed_pairIP16ConsoleUiManagerNS_14default_deleteIS1_EEEC2B7v160006IRS2_NS_16__value_init_tagEEEOT_OT0_, symObjAddr: 0x1F4C, symBinAddr: 0x100003430, symSize: 0x40 }
  - { offsetInCU: 0xB50C, offset: 0xB50C, size: 0x8, addend: 0x0, symName: __ZNSt3__122__compressed_pair_elemIP16ConsoleUiManagerLi0ELb0EEC2B7v160006IRS2_vEEOT_, symObjAddr: 0x1F8C, symBinAddr: 0x100003470, symSize: 0x24 }
  - { offsetInCU: 0xB54E, offset: 0xB54E, size: 0x8, addend: 0x0, symName: __ZNSt3__122__compressed_pair_elemINS_14default_deleteI16ConsoleUiManagerEELi1ELb1EEC2B7v160006ENS_16__value_init_tagE, symObjAddr: 0x1FB0, symBinAddr: 0x100003494, symSize: 0x14 }
  - { offsetInCU: 0xB583, offset: 0xB583, size: 0x8, addend: 0x0, symName: __ZNSt3__110unique_ptrI9UiManagerNS_14default_deleteIS1_EEEC2B7v160006I16ConsoleUiManagerNS2_IS6_EEvvEEONS0_IT_T0_EE, symObjAddr: 0x1FC4, symBinAddr: 0x1000034A8, symSize: 0x60 }
  - { offsetInCU: 0xB5CF, offset: 0xB5CF, size: 0x8, addend: 0x0, symName: __ZNSt3__110unique_ptrI16ConsoleUiManagerNS_14default_deleteIS1_EEE7releaseB7v160006Ev, symObjAddr: 0x2024, symBinAddr: 0x100003508, symSize: 0x44 }
  - { offsetInCU: 0xB604, offset: 0xB604, size: 0x8, addend: 0x0, symName: __ZNSt3__110unique_ptrI16ConsoleUiManagerNS_14default_deleteIS1_EEE11get_deleterB7v160006Ev, symObjAddr: 0x2068, symBinAddr: 0x10000354C, symSize: 0x24 }
  - { offsetInCU: 0xB634, offset: 0xB634, size: 0x8, addend: 0x0, symName: __ZNSt3__117__compressed_pairIP9UiManagerNS_14default_deleteIS1_EEEC1B7v160006IP16ConsoleUiManagerNS3_IS7_EEEEOT_OT0_, symObjAddr: 0x208C, symBinAddr: 0x100003570, symSize: 0x3C }
  - { offsetInCU: 0xB68C, offset: 0xB68C, size: 0x8, addend: 0x0, symName: __ZNSt3__117__compressed_pairIP16ConsoleUiManagerNS_14default_deleteIS1_EEE5firstB7v160006Ev, symObjAddr: 0x20C8, symBinAddr: 0x1000035AC, symSize: 0x24 }
  - { offsetInCU: 0xB6B2, offset: 0xB6B2, size: 0x8, addend: 0x0, symName: __ZNSt3__122__compressed_pair_elemIP16ConsoleUiManagerLi0ELb0EE5__getB7v160006Ev, symObjAddr: 0x20EC, symBinAddr: 0x1000035D0, symSize: 0x14 }
  - { offsetInCU: 0xB6D8, offset: 0xB6D8, size: 0x8, addend: 0x0, symName: __ZNSt3__117__compressed_pairIP16ConsoleUiManagerNS_14default_deleteIS1_EEE6secondB7v160006Ev, symObjAddr: 0x2100, symBinAddr: 0x1000035E4, symSize: 0x24 }
  - { offsetInCU: 0xB6FE, offset: 0xB6FE, size: 0x8, addend: 0x0, symName: __ZNSt3__122__compressed_pair_elemINS_14default_deleteI16ConsoleUiManagerEELi1ELb1EE5__getB7v160006Ev, symObjAddr: 0x2124, symBinAddr: 0x100003608, symSize: 0x14 }
  - { offsetInCU: 0xB724, offset: 0xB724, size: 0x8, addend: 0x0, symName: __ZNSt3__117__compressed_pairIP9UiManagerNS_14default_deleteIS1_EEEC2B7v160006IP16ConsoleUiManagerNS3_IS7_EEEEOT_OT0_, symObjAddr: 0x2138, symBinAddr: 0x10000361C, symSize: 0x44 }
  - { offsetInCU: 0xB77C, offset: 0xB77C, size: 0x8, addend: 0x0, symName: __ZNSt3__122__compressed_pair_elemIP9UiManagerLi0ELb0EEC2B7v160006IP16ConsoleUiManagervEEOT_, symObjAddr: 0x217C, symBinAddr: 0x100003660, symSize: 0x24 }
  - { offsetInCU: 0xB7BE, offset: 0xB7BE, size: 0x8, addend: 0x0, symName: __ZNSt3__122__compressed_pair_elemINS_14default_deleteI9UiManagerEELi1ELb1EEC2B7v160006INS1_I16ConsoleUiManagerEEvEEOT_, symObjAddr: 0x21A0, symBinAddr: 0x100003684, symSize: 0x38 }
  - { offsetInCU: 0xB805, offset: 0xB805, size: 0x8, addend: 0x0, symName: __ZNSt3__114default_deleteI9UiManagerEC2B7v160006I16ConsoleUiManagerEERKNS0_IT_EEPNS_9enable_ifIXsr14is_convertibleIPS5_PS1_EE5valueEvE4typeE, symObjAddr: 0x21D8, symBinAddr: 0x1000036BC, symSize: 0x1C }
  - { offsetInCU: 0xB84E, offset: 0xB84E, size: 0x8, addend: 0x0, symName: __ZNSt3__110unique_ptrI16ConsoleUiManagerNS_14default_deleteIS1_EEED2B7v160006Ev, symObjAddr: 0x21F4, symBinAddr: 0x1000036D8, symSize: 0x30 }
  - { offsetInCU: 0xB878, offset: 0xB878, size: 0x8, addend: 0x0, symName: __ZNSt3__110unique_ptrI16ConsoleUiManagerNS_14default_deleteIS1_EEE5resetB7v160006EPS1_, symObjAddr: 0x2224, symBinAddr: 0x100003708, symSize: 0x78 }
  - { offsetInCU: 0xB8BC, offset: 0xB8BC, size: 0x8, addend: 0x0, symName: __ZNKSt3__114default_deleteI16ConsoleUiManagerEclB7v160006EPS1_, symObjAddr: 0x229C, symBinAddr: 0x100003780, symSize: 0x4C }
  - { offsetInCU: 0xB8F0, offset: 0xB8F0, size: 0x8, addend: 0x0, symName: __ZN9GameStateD2Ev, symObjAddr: 0x22E8, symBinAddr: 0x1000037CC, symSize: 0x2C }
  - { offsetInCU: 0xB91C, offset: 0xB91C, size: 0x8, addend: 0x0, symName: __ZNSt3__110unique_ptrI9UiManagerNS_14default_deleteIS1_EEED1B7v160006Ev, symObjAddr: 0x2314, symBinAddr: 0x1000037F8, symSize: 0x2C }
  - { offsetInCU: 0xB946, offset: 0xB946, size: 0x8, addend: 0x0, symName: __ZNSt3__110unique_ptrI9UiManagerNS_14default_deleteIS1_EEED2B7v160006Ev, symObjAddr: 0x2340, symBinAddr: 0x100003824, symSize: 0x30 }
  - { offsetInCU: 0xB970, offset: 0xB970, size: 0x8, addend: 0x0, symName: __ZNSt3__110unique_ptrI9UiManagerNS_14default_deleteIS1_EEE5resetB7v160006EPS1_, symObjAddr: 0x2370, symBinAddr: 0x100003854, symSize: 0x78 }
  - { offsetInCU: 0xB9B4, offset: 0xB9B4, size: 0x8, addend: 0x0, symName: __ZNSt3__117__compressed_pairIP9UiManagerNS_14default_deleteIS1_EEE5firstB7v160006Ev, symObjAddr: 0x23E8, symBinAddr: 0x1000038CC, symSize: 0x24 }
  - { offsetInCU: 0xB9DA, offset: 0xB9DA, size: 0x8, addend: 0x0, symName: __ZNSt3__117__compressed_pairIP9UiManagerNS_14default_deleteIS1_EEE6secondB7v160006Ev, symObjAddr: 0x240C, symBinAddr: 0x1000038F0, symSize: 0x24 }
  - { offsetInCU: 0xBA00, offset: 0xBA00, size: 0x8, addend: 0x0, symName: __ZNKSt3__114default_deleteI9UiManagerEclB7v160006EPS1_, symObjAddr: 0x2430, symBinAddr: 0x100003914, symSize: 0x4C }
  - { offsetInCU: 0xBA34, offset: 0xBA34, size: 0x8, addend: 0x0, symName: __ZNSt3__122__compressed_pair_elemIP9UiManagerLi0ELb0EE5__getB7v160006Ev, symObjAddr: 0x247C, symBinAddr: 0x100003960, symSize: 0x14 }
  - { offsetInCU: 0xBA5A, offset: 0xBA5A, size: 0x8, addend: 0x0, symName: __ZNSt3__122__compressed_pair_elemINS_14default_deleteI9UiManagerEELi1ELb1EE5__getB7v160006Ev, symObjAddr: 0x2490, symBinAddr: 0x100003974, symSize: 0x14 }
  - { offsetInCU: 0xBA80, offset: 0xBA80, size: 0x8, addend: 0x0, symName: __ZNKSt3__117__compressed_pairIP9UiManagerNS_14default_deleteIS1_EEE5firstB7v160006Ev, symObjAddr: 0x24A4, symBinAddr: 0x100003988, symSize: 0x24 }
  - { offsetInCU: 0xBAA6, offset: 0xBAA6, size: 0x8, addend: 0x0, symName: __ZNKSt3__122__compressed_pair_elemIP9UiManagerLi0ELb0EE5__getB7v160006Ev, symObjAddr: 0x24C8, symBinAddr: 0x1000039AC, symSize: 0x14 }
  - { offsetInCU: 0xBACB, offset: 0xBACB, size: 0x8, addend: 0x0, symName: __ZNSt3__111char_traitsIcE6lengthEPKc, symObjAddr: 0x24DC, symBinAddr: 0x1000039C0, symSize: 0x34 }
...
